; Function Attrs: null_pointer_is_valid sspstrong uwtable
define internal fastcc i32 @cmd_ioctl_resp(ptr noundef %0, ptr noundef readonly captures(none) %1, ptr noundef %2, i32 noundef %3) unnamed_addr #0 {
  %5 = tail call i32 @tvb_reported_length_remaining(ptr noundef %0, i32 noundef 16)
  %6 = icmp sgt i32 %5, 0
  br i1 %6, label %7, label %9

7:                                                ; preds = %4
  %8 = tail call fastcc i32 @cmd_ioctl_details(ptr noundef %0, ptr noundef %1, ptr noundef %2, i32 noundef %3, i32 noundef %5)
  br label %9

9:                                                ; preds = %7, %4
  %.0 = phi i32 [ %8, %7 ], [ 16, %4 ]
  ret i32 %.0
}